; Function Attrs: mustprogress uwtable
define void @_ZN2cv6detail8tracking16TrackerSamplerCSC2ERKNS2_6ParamsE(ptr noundef nonnull align 8 dereferenceable(100) %0, ptr noundef nonnull readonly align 4 captures(none) dereferenceable(8) %1) unnamed_addr #3 align 2 personality ptr @__gxx_personality_v0 {
  %3 = getelementptr inbounds nuw i8, ptr %0, i64 8
  %4 = getelementptr inbounds nuw i8, ptr %0, i64 24
  store ptr %4, ptr %3, align 8, !tbaa !151
  %5 = getelementptr inbounds nuw i8, ptr %0, i64 16
  store i64 0, ptr %5, align 8, !tbaa !102
  store i8 0, ptr %4, align 8, !tbaa !41
  store ptr getelementptr inbounds nuw inrange(-16, 32) (i8, ptr @_ZTVN2cv6detail8tracking16TrackerSamplerCSE, i64 16), ptr %0, align 8, !tbaa !3
  %6 = getelementptr inbounds nuw i8, ptr %0, i64 40
  %7 = load i64, ptr %1, align 4
  store i64 %7, ptr %6, align 8
  %8 = getelementptr inbounds nuw i8, ptr %0, i64 52
  tail call void @llvm.memset.p0.i64(ptr noundef nonnull align 4 dereferenceable(48) %8, i8 0, i64 48, i1 false)
  %9 = invoke noundef nonnull align 8 dereferenceable(32) ptr @_ZNSt7__cxx1112basic_stringIcSt11char_traitsIcESaIcEE10_M_replaceEmmPKcm(ptr noundef nonnull align 8 dereferenceable(32) %3, i64 noundef 0, i64 noundef 0, ptr noundef nonnull @.str.11, i64 noundef 2)
          to label %_ZNSt7__cxx1112basic_stringIcSt11char_traitsIcESaIcEEaSEPKc.exit unwind label %11

_ZNSt7__cxx1112basic_stringIcSt11char_traitsIcESaIcEEaSEPKc.exit: ; preds = %2
  %10 = getelementptr inbounds nuw i8, ptr %0, i64 48
  store i32 1, ptr %10, align 8, !tbaa !186
  ret void

11:                                               ; preds = %2
  %12 = landingpad { ptr, i32 }
          cleanup
  tail call void @_ZN2cv6detail8tracking30TrackerContribSamplerAlgorithmD2Ev(ptr noundef nonnull align 8 dereferenceable(40) %0) #30
  resume { ptr, i32 } %12
}